
;CodeVisionAVR C Compiler V3.32a Evaluation
;(C) Copyright 1998-2017 Pavel Haiduc, HP InfoTech s.r.l.
;http://www.hpinfotech.com

;Build configuration    : Debug
;Chip type              : ATmega128
;Program type           : Application
;Clock frequency        : 16.000000 MHz
;Memory model           : Small
;Optimize for           : Size
;(s)printf features     : int, width
;(s)scanf features      : int, width
;External RAM size      : 0
;Data Stack size        : 1024 byte(s)
;Heap size              : 0 byte(s)
;Promote 'char' to 'int': Yes
;'char' is unsigned     : Yes
;8 bit enums            : Yes
;Global 'const' stored in FLASH: Yes
;Enhanced function parameter passing: Mode 2
;Enhanced core instructions: On
;Automatic register allocation for global variables: On
;Smart register allocation: On

	#define _MODEL_SMALL_

	#pragma AVRPART ADMIN PART_NAME ATmega128
	#pragma AVRPART MEMORY PROG_FLASH 131072
	#pragma AVRPART MEMORY EEPROM 4096
	#pragma AVRPART MEMORY INT_SRAM SIZE 4096
	#pragma AVRPART MEMORY INT_SRAM START_ADDR 0x100

	#define CALL_SUPPORTED 1

	.LISTMAC
	.EQU UDRE=0x5
	.EQU RXC=0x7
	.EQU USR=0xB
	.EQU UDR=0xC
	.EQU SPSR=0xE
	.EQU SPDR=0xF
	.EQU EERE=0x0
	.EQU EEWE=0x1
	.EQU EEMWE=0x2
	.EQU EECR=0x1C
	.EQU EEDR=0x1D
	.EQU EEARL=0x1E
	.EQU EEARH=0x1F
	.EQU WDTCR=0x21
	.EQU MCUCR=0x35
	.EQU RAMPZ=0x3B
	.EQU SPL=0x3D
	.EQU SPH=0x3E
	.EQU SREG=0x3F
	.EQU XMCRA=0x6D
	.EQU XMCRB=0x6C

	.DEF R0X0=R0
	.DEF R0X1=R1
	.DEF R0X2=R2
	.DEF R0X3=R3
	.DEF R0X4=R4
	.DEF R0X5=R5
	.DEF R0X6=R6
	.DEF R0X7=R7
	.DEF R0X8=R8
	.DEF R0X9=R9
	.DEF R0XA=R10
	.DEF R0XB=R11
	.DEF R0XC=R12
	.DEF R0XD=R13
	.DEF R0XE=R14
	.DEF R0XF=R15
	.DEF R0X10=R16
	.DEF R0X11=R17
	.DEF R0X12=R18
	.DEF R0X13=R19
	.DEF R0X14=R20
	.DEF R0X15=R21
	.DEF R0X16=R22
	.DEF R0X17=R23
	.DEF R0X18=R24
	.DEF R0X19=R25
	.DEF R0X1A=R26
	.DEF R0X1B=R27
	.DEF R0X1C=R28
	.DEF R0X1D=R29
	.DEF R0X1E=R30
	.DEF R0X1F=R31

	.EQU __SRAM_START=0x0100
	.EQU __SRAM_END=0x10FF
	.EQU __DSTACK_SIZE=0x0400
	.EQU __HEAP_SIZE=0x0000
	.EQU __CLEAR_SRAM_SIZE=__SRAM_END-__SRAM_START+1

	.MACRO __CPD1N
	CPI  R30,LOW(@0)
	LDI  R26,HIGH(@0)
	CPC  R31,R26
	LDI  R26,BYTE3(@0)
	CPC  R22,R26
	LDI  R26,BYTE4(@0)
	CPC  R23,R26
	.ENDM

	.MACRO __CPD2N
	CPI  R26,LOW(@0)
	LDI  R30,HIGH(@0)
	CPC  R27,R30
	LDI  R30,BYTE3(@0)
	CPC  R24,R30
	LDI  R30,BYTE4(@0)
	CPC  R25,R30
	.ENDM

	.MACRO __CPWRR
	CP   R@0,R@2
	CPC  R@1,R@3
	.ENDM

	.MACRO __CPWRN
	CPI  R@0,LOW(@2)
	LDI  R30,HIGH(@2)
	CPC  R@1,R30
	.ENDM

	.MACRO __ADDB1MN
	SUBI R30,LOW(-@0-(@1))
	.ENDM

	.MACRO __ADDB2MN
	SUBI R26,LOW(-@0-(@1))
	.ENDM

	.MACRO __ADDW1MN
	SUBI R30,LOW(-@0-(@1))
	SBCI R31,HIGH(-@0-(@1))
	.ENDM

	.MACRO __ADDW2MN
	SUBI R26,LOW(-@0-(@1))
	SBCI R27,HIGH(-@0-(@1))
	.ENDM

	.MACRO __ADDW1FN
	SUBI R30,LOW(-2*@0-(@1))
	SBCI R31,HIGH(-2*@0-(@1))
	.ENDM

	.MACRO __ADDD1FN
	SUBI R30,LOW(-2*@0-(@1))
	SBCI R31,HIGH(-2*@0-(@1))
	SBCI R22,BYTE3(-2*@0-(@1))
	.ENDM

	.MACRO __ADDD1N
	SUBI R30,LOW(-@0)
	SBCI R31,HIGH(-@0)
	SBCI R22,BYTE3(-@0)
	SBCI R23,BYTE4(-@0)
	.ENDM

	.MACRO __ADDD2N
	SUBI R26,LOW(-@0)
	SBCI R27,HIGH(-@0)
	SBCI R24,BYTE3(-@0)
	SBCI R25,BYTE4(-@0)
	.ENDM

	.MACRO __SUBD1N
	SUBI R30,LOW(@0)
	SBCI R31,HIGH(@0)
	SBCI R22,BYTE3(@0)
	SBCI R23,BYTE4(@0)
	.ENDM

	.MACRO __SUBD2N
	SUBI R26,LOW(@0)
	SBCI R27,HIGH(@0)
	SBCI R24,BYTE3(@0)
	SBCI R25,BYTE4(@0)
	.ENDM

	.MACRO __ANDBMNN
	LDS  R30,@0+(@1)
	ANDI R30,LOW(@2)
	STS  @0+(@1),R30
	.ENDM

	.MACRO __ANDWMNN
	LDS  R30,@0+(@1)
	ANDI R30,LOW(@2)
	STS  @0+(@1),R30
	LDS  R30,@0+(@1)+1
	ANDI R30,HIGH(@2)
	STS  @0+(@1)+1,R30
	.ENDM

	.MACRO __ANDD1N
	ANDI R30,LOW(@0)
	ANDI R31,HIGH(@0)
	ANDI R22,BYTE3(@0)
	ANDI R23,BYTE4(@0)
	.ENDM

	.MACRO __ANDD2N
	ANDI R26,LOW(@0)
	ANDI R27,HIGH(@0)
	ANDI R24,BYTE3(@0)
	ANDI R25,BYTE4(@0)
	.ENDM

	.MACRO __ORBMNN
	LDS  R30,@0+(@1)
	ORI  R30,LOW(@2)
	STS  @0+(@1),R30
	.ENDM

	.MACRO __ORWMNN
	LDS  R30,@0+(@1)
	ORI  R30,LOW(@2)
	STS  @0+(@1),R30
	LDS  R30,@0+(@1)+1
	ORI  R30,HIGH(@2)
	STS  @0+(@1)+1,R30
	.ENDM

	.MACRO __ORD1N
	ORI  R30,LOW(@0)
	ORI  R31,HIGH(@0)
	ORI  R22,BYTE3(@0)
	ORI  R23,BYTE4(@0)
	.ENDM

	.MACRO __ORD2N
	ORI  R26,LOW(@0)
	ORI  R27,HIGH(@0)
	ORI  R24,BYTE3(@0)
	ORI  R25,BYTE4(@0)
	.ENDM

	.MACRO __DELAY_USB
	LDI  R24,LOW(@0)
__DELAY_USB_LOOP:
	DEC  R24
	BRNE __DELAY_USB_LOOP
	.ENDM

	.MACRO __DELAY_USW
	LDI  R24,LOW(@0)
	LDI  R25,HIGH(@0)
__DELAY_USW_LOOP:
	SBIW R24,1
	BRNE __DELAY_USW_LOOP
	.ENDM

	.MACRO __GETD1S
	LDD  R30,Y+@0
	LDD  R31,Y+@0+1
	LDD  R22,Y+@0+2
	LDD  R23,Y+@0+3
	.ENDM

	.MACRO __GETD2S
	LDD  R26,Y+@0
	LDD  R27,Y+@0+1
	LDD  R24,Y+@0+2
	LDD  R25,Y+@0+3
	.ENDM

	.MACRO __PUTD1S
	STD  Y+@0,R30
	STD  Y+@0+1,R31
	STD  Y+@0+2,R22
	STD  Y+@0+3,R23
	.ENDM

	.MACRO __PUTD2S
	STD  Y+@0,R26
	STD  Y+@0+1,R27
	STD  Y+@0+2,R24
	STD  Y+@0+3,R25
	.ENDM

	.MACRO __PUTDZ2
	STD  Z+@0,R26
	STD  Z+@0+1,R27
	STD  Z+@0+2,R24
	STD  Z+@0+3,R25
	.ENDM

	.MACRO __CLRD1S
	STD  Y+@0,R30
	STD  Y+@0+1,R30
	STD  Y+@0+2,R30
	STD  Y+@0+3,R30
	.ENDM

	.MACRO __POINTB1MN
	LDI  R30,LOW(@0+(@1))
	.ENDM

	.MACRO __POINTW1MN
	LDI  R30,LOW(@0+(@1))
	LDI  R31,HIGH(@0+(@1))
	.ENDM

	.MACRO __POINTD1M
	LDI  R30,LOW(@0)
	LDI  R31,HIGH(@0)
	LDI  R22,BYTE3(@0)
	LDI  R23,BYTE4(@0)
	.ENDM

	.MACRO __POINTW1FN
	LDI  R30,LOW(2*@0+(@1))
	LDI  R31,HIGH(2*@0+(@1))
	.ENDM

	.MACRO __POINTD1FN
	LDI  R30,LOW(2*@0+(@1))
	LDI  R31,HIGH(2*@0+(@1))
	LDI  R22,BYTE3(2*@0+(@1))
	LDI  R23,BYTE4(2*@0+(@1))
	.ENDM

	.MACRO __POINTB2MN
	LDI  R26,LOW(@0+(@1))
	.ENDM

	.MACRO __POINTW2MN
	LDI  R26,LOW(@0+(@1))
	LDI  R27,HIGH(@0+(@1))
	.ENDM

	.MACRO __POINTD2M
	LDI  R26,LOW(@0)
	LDI  R27,HIGH(@0)
	LDI  R24,BYTE3(@0)
	LDI  R25,BYTE4(@0)
	.ENDM

	.MACRO __POINTW2FN
	LDI  R26,LOW(2*@0+(@1))
	LDI  R27,HIGH(2*@0+(@1))
	.ENDM

	.MACRO __POINTD2FN
	LDI  R26,LOW(2*@0+(@1))
	LDI  R27,HIGH(2*@0+(@1))
	LDI  R24,BYTE3(2*@0+(@1))
	LDI  R25,BYTE4(2*@0+(@1))
	.ENDM

	.MACRO __POINTBRM
	LDI  R@0,LOW(@1)
	.ENDM

	.MACRO __POINTWRM
	LDI  R@0,LOW(@2)
	LDI  R@1,HIGH(@2)
	.ENDM

	.MACRO __POINTBRMN
	LDI  R@0,LOW(@1+(@2))
	.ENDM

	.MACRO __POINTWRMN
	LDI  R@0,LOW(@2+(@3))
	LDI  R@1,HIGH(@2+(@3))
	.ENDM

	.MACRO __POINTWRFN
	LDI  R@0,LOW(@2*2+(@3))
	LDI  R@1,HIGH(@2*2+(@3))
	.ENDM

	.MACRO __GETD1N
	LDI  R30,LOW(@0)
	LDI  R31,HIGH(@0)
	LDI  R22,BYTE3(@0)
	LDI  R23,BYTE4(@0)
	.ENDM

	.MACRO __GETD2N
	LDI  R26,LOW(@0)
	LDI  R27,HIGH(@0)
	LDI  R24,BYTE3(@0)
	LDI  R25,BYTE4(@0)
	.ENDM

	.MACRO __GETB1MN
	LDS  R30,@0+(@1)
	.ENDM

	.MACRO __GETB1HMN
	LDS  R31,@0+(@1)
	.ENDM

	.MACRO __GETW1MN
	LDS  R30,@0+(@1)
	LDS  R31,@0+(@1)+1
	.ENDM

	.MACRO __GETD1MN
	LDS  R30,@0+(@1)
	LDS  R31,@0+(@1)+1
	LDS  R22,@0+(@1)+2
	LDS  R23,@0+(@1)+3
	.ENDM

	.MACRO __GETBRMN
	LDS  R@0,@1+(@2)
	.ENDM

	.MACRO __GETWRMN
	LDS  R@0,@2+(@3)
	LDS  R@1,@2+(@3)+1
	.ENDM

	.MACRO __GETWRZ
	LDD  R@0,Z+@2
	LDD  R@1,Z+@2+1
	.ENDM

	.MACRO __GETD2Z
	LDD  R26,Z+@0
	LDD  R27,Z+@0+1
	LDD  R24,Z+@0+2
	LDD  R25,Z+@0+3
	.ENDM

	.MACRO __GETB2MN
	LDS  R26,@0+(@1)
	.ENDM

	.MACRO __GETW2MN
	LDS  R26,@0+(@1)
	LDS  R27,@0+(@1)+1
	.ENDM

	.MACRO __GETD2MN
	LDS  R26,@0+(@1)
	LDS  R27,@0+(@1)+1
	LDS  R24,@0+(@1)+2
	LDS  R25,@0+(@1)+3
	.ENDM

	.MACRO __PUTB1MN
	STS  @0+(@1),R30
	.ENDM

	.MACRO __PUTW1MN
	STS  @0+(@1),R30
	STS  @0+(@1)+1,R31
	.ENDM

	.MACRO __PUTD1MN
	STS  @0+(@1),R30
	STS  @0+(@1)+1,R31
	STS  @0+(@1)+2,R22
	STS  @0+(@1)+3,R23
	.ENDM

	.MACRO __PUTB1EN
	LDI  R26,LOW(@0+(@1))
	LDI  R27,HIGH(@0+(@1))
	CALL __EEPROMWRB
	.ENDM

	.MACRO __PUTW1EN
	LDI  R26,LOW(@0+(@1))
	LDI  R27,HIGH(@0+(@1))
	CALL __EEPROMWRW
	.ENDM

	.MACRO __PUTD1EN
	LDI  R26,LOW(@0+(@1))
	LDI  R27,HIGH(@0+(@1))
	CALL __EEPROMWRD
	.ENDM

	.MACRO __PUTBR0MN
	STS  @0+(@1),R0
	.ENDM

	.MACRO __PUTBMRN
	STS  @0+(@1),R@2
	.ENDM

	.MACRO __PUTWMRN
	STS  @0+(@1),R@2
	STS  @0+(@1)+1,R@3
	.ENDM

	.MACRO __PUTBZR
	STD  Z+@1,R@0
	.ENDM

	.MACRO __PUTWZR
	STD  Z+@2,R@0
	STD  Z+@2+1,R@1
	.ENDM

	.MACRO __GETW1R
	MOV  R30,R@0
	MOV  R31,R@1
	.ENDM

	.MACRO __GETW2R
	MOV  R26,R@0
	MOV  R27,R@1
	.ENDM

	.MACRO __GETWRN
	LDI  R@0,LOW(@2)
	LDI  R@1,HIGH(@2)
	.ENDM

	.MACRO __PUTW1R
	MOV  R@0,R30
	MOV  R@1,R31
	.ENDM

	.MACRO __PUTW2R
	MOV  R@0,R26
	MOV  R@1,R27
	.ENDM

	.MACRO __ADDWRN
	SUBI R@0,LOW(-@2)
	SBCI R@1,HIGH(-@2)
	.ENDM

	.MACRO __ADDWRR
	ADD  R@0,R@2
	ADC  R@1,R@3
	.ENDM

	.MACRO __SUBWRN
	SUBI R@0,LOW(@2)
	SBCI R@1,HIGH(@2)
	.ENDM

	.MACRO __SUBWRR
	SUB  R@0,R@2
	SBC  R@1,R@3
	.ENDM

	.MACRO __ANDWRN
	ANDI R@0,LOW(@2)
	ANDI R@1,HIGH(@2)
	.ENDM

	.MACRO __ANDWRR
	AND  R@0,R@2
	AND  R@1,R@3
	.ENDM

	.MACRO __ORWRN
	ORI  R@0,LOW(@2)
	ORI  R@1,HIGH(@2)
	.ENDM

	.MACRO __ORWRR
	OR   R@0,R@2
	OR   R@1,R@3
	.ENDM

	.MACRO __EORWRR
	EOR  R@0,R@2
	EOR  R@1,R@3
	.ENDM

	.MACRO __GETWRS
	LDD  R@0,Y+@2
	LDD  R@1,Y+@2+1
	.ENDM

	.MACRO __PUTBSR
	STD  Y+@1,R@0
	.ENDM

	.MACRO __PUTWSR
	STD  Y+@2,R@0
	STD  Y+@2+1,R@1
	.ENDM

	.MACRO __MOVEWRR
	MOV  R@0,R@2
	MOV  R@1,R@3
	.ENDM

	.MACRO __INWR
	IN   R@0,@2
	IN   R@1,@2+1
	.ENDM

	.MACRO __OUTWR
	OUT  @2+1,R@1
	OUT  @2,R@0
	.ENDM

	.MACRO __CALL1MN
	LDS  R30,@0+(@1)
	LDS  R31,@0+(@1)+1
	ICALL
	.ENDM

	.MACRO __CALL1FN
	LDI  R30,LOW(2*@0+(@1))
	LDI  R31,HIGH(2*@0+(@1))
	CALL __GETW1PF
	ICALL
	.ENDM

	.MACRO __CALL2EN
	PUSH R26
	PUSH R27
	LDI  R26,LOW(@0+(@1))
	LDI  R27,HIGH(@0+(@1))
	CALL __EEPROMRDW
	POP  R27
	POP  R26
	ICALL
	.ENDM

	.MACRO __CALL2EX
	SUBI R26,LOW(-@0)
	SBCI R27,HIGH(-@0)
	CALL __EEPROMRDD
	ICALL
	.ENDM

	.MACRO __GETW1STACK
	IN   R30,SPL
	IN   R31,SPH
	ADIW R30,@0+1
	LD   R0,Z+
	LD   R31,Z
	MOV  R30,R0
	.ENDM

	.MACRO __GETD1STACK
	IN   R30,SPL
	IN   R31,SPH
	ADIW R30,@0+1
	LD   R0,Z+
	LD   R1,Z+
	LD   R22,Z
	MOVW R30,R0
	.ENDM

	.MACRO __NBST
	BST  R@0,@1
	IN   R30,SREG
	LDI  R31,0x40
	EOR  R30,R31
	OUT  SREG,R30
	.ENDM


	.MACRO __PUTB1SN
	LDD  R26,Y+@0
	LDD  R27,Y+@0+1
	SUBI R26,LOW(-@1)
	SBCI R27,HIGH(-@1)
	ST   X,R30
	.ENDM

	.MACRO __PUTW1SN
	LDD  R26,Y+@0
	LDD  R27,Y+@0+1
	SUBI R26,LOW(-@1)
	SBCI R27,HIGH(-@1)
	ST   X+,R30
	ST   X,R31
	.ENDM

	.MACRO __PUTD1SN
	LDD  R26,Y+@0
	LDD  R27,Y+@0+1
	SUBI R26,LOW(-@1)
	SBCI R27,HIGH(-@1)
	CALL __PUTDP1
	.ENDM

	.MACRO __PUTB1SNS
	LDD  R26,Y+@0
	LDD  R27,Y+@0+1
	ADIW R26,@1
	ST   X,R30
	.ENDM

	.MACRO __PUTW1SNS
	LDD  R26,Y+@0
	LDD  R27,Y+@0+1
	ADIW R26,@1
	ST   X+,R30
	ST   X,R31
	.ENDM

	.MACRO __PUTD1SNS
	LDD  R26,Y+@0
	LDD  R27,Y+@0+1
	ADIW R26,@1
	CALL __PUTDP1
	.ENDM

	.MACRO __PUTB1PMN
	LDS  R26,@0
	LDS  R27,@0+1
	SUBI R26,LOW(-@1)
	SBCI R27,HIGH(-@1)
	ST   X,R30
	.ENDM

	.MACRO __PUTW1PMN
	LDS  R26,@0
	LDS  R27,@0+1
	SUBI R26,LOW(-@1)
	SBCI R27,HIGH(-@1)
	ST   X+,R30
	ST   X,R31
	.ENDM

	.MACRO __PUTD1PMN
	LDS  R26,@0
	LDS  R27,@0+1
	SUBI R26,LOW(-@1)
	SBCI R27,HIGH(-@1)
	CALL __PUTDP1
	.ENDM

	.MACRO __PUTB1PMNS
	LDS  R26,@0
	LDS  R27,@0+1
	ADIW R26,@1
	ST   X,R30
	.ENDM

	.MACRO __PUTW1PMNS
	LDS  R26,@0
	LDS  R27,@0+1
	ADIW R26,@1
	ST   X+,R30
	ST   X,R31
	.ENDM

	.MACRO __PUTD1PMNS
	LDS  R26,@0
	LDS  R27,@0+1
	ADIW R26,@1
	CALL __PUTDP1
	.ENDM

	.MACRO __PUTB1RN
	MOVW R26,R@0
	SUBI R26,LOW(-@1)
	SBCI R27,HIGH(-@1)
	ST   X,R30
	.ENDM

	.MACRO __PUTW1RN
	MOVW R26,R@0
	SUBI R26,LOW(-@1)
	SBCI R27,HIGH(-@1)
	ST   X+,R30
	ST   X,R31
	.ENDM

	.MACRO __PUTD1RN
	MOVW R26,R@0
	SUBI R26,LOW(-@1)
	SBCI R27,HIGH(-@1)
	CALL __PUTDP1
	.ENDM

	.MACRO __PUTB1RNS
	MOVW R26,R@0
	ADIW R26,@1
	ST   X,R30
	.ENDM

	.MACRO __PUTW1RNS
	MOVW R26,R@0
	ADIW R26,@1
	ST   X+,R30
	ST   X,R31
	.ENDM

	.MACRO __PUTD1RNS
	MOVW R26,R@0
	ADIW R26,@1
	CALL __PUTDP1
	.ENDM

	.MACRO __PUTB1RON
	MOV  R26,R@0
	MOV  R27,R@1
	SUBI R26,LOW(-@2)
	SBCI R27,HIGH(-@2)
	ST   X,R30
	.ENDM

	.MACRO __PUTW1RON
	MOV  R26,R@0
	MOV  R27,R@1
	SUBI R26,LOW(-@2)
	SBCI R27,HIGH(-@2)
	ST   X+,R30
	ST   X,R31
	.ENDM

	.MACRO __PUTD1RON
	MOV  R26,R@0
	MOV  R27,R@1
	SUBI R26,LOW(-@2)
	SBCI R27,HIGH(-@2)
	CALL __PUTDP1
	.ENDM

	.MACRO __PUTB1RONS
	MOV  R26,R@0
	MOV  R27,R@1
	ADIW R26,@2
	ST   X,R30
	.ENDM

	.MACRO __PUTW1RONS
	MOV  R26,R@0
	MOV  R27,R@1
	ADIW R26,@2
	ST   X+,R30
	ST   X,R31
	.ENDM

	.MACRO __PUTD1RONS
	MOV  R26,R@0
	MOV  R27,R@1
	ADIW R26,@2
	CALL __PUTDP1
	.ENDM


	.MACRO __GETB1SX
	MOVW R30,R28
	SUBI R30,LOW(-@0)
	SBCI R31,HIGH(-@0)
	LD   R30,Z
	.ENDM

	.MACRO __GETB1HSX
	MOVW R30,R28
	SUBI R30,LOW(-@0)
	SBCI R31,HIGH(-@0)
	LD   R31,Z
	.ENDM

	.MACRO __GETW1SX
	MOVW R30,R28
	SUBI R30,LOW(-@0)
	SBCI R31,HIGH(-@0)
	LD   R0,Z+
	LD   R31,Z
	MOV  R30,R0
	.ENDM

	.MACRO __GETD1SX
	MOVW R30,R28
	SUBI R30,LOW(-@0)
	SBCI R31,HIGH(-@0)
	LD   R0,Z+
	LD   R1,Z+
	LD   R22,Z+
	LD   R23,Z
	MOVW R30,R0
	.ENDM

	.MACRO __GETB2SX
	MOVW R26,R28
	SUBI R26,LOW(-@0)
	SBCI R27,HIGH(-@0)
	LD   R26,X
	.ENDM

	.MACRO __GETW2SX
	MOVW R26,R28
	SUBI R26,LOW(-@0)
	SBCI R27,HIGH(-@0)
	LD   R0,X+
	LD   R27,X
	MOV  R26,R0
	.ENDM

	.MACRO __GETD2SX
	MOVW R26,R28
	SUBI R26,LOW(-@0)
	SBCI R27,HIGH(-@0)
	LD   R0,X+
	LD   R1,X+
	LD   R24,X+
	LD   R25,X
	MOVW R26,R0
	.ENDM

	.MACRO __GETBRSX
	MOVW R30,R28
	SUBI R30,LOW(-@1)
	SBCI R31,HIGH(-@1)
	LD   R@0,Z
	.ENDM

	.MACRO __GETWRSX
	MOVW R30,R28
	SUBI R30,LOW(-@2)
	SBCI R31,HIGH(-@2)
	LD   R@0,Z+
	LD   R@1,Z
	.ENDM

	.MACRO __GETBRSX2
	MOVW R26,R28
	SUBI R26,LOW(-@1)
	SBCI R27,HIGH(-@1)
	LD   R@0,X
	.ENDM

	.MACRO __GETWRSX2
	MOVW R26,R28
	SUBI R26,LOW(-@2)
	SBCI R27,HIGH(-@2)
	LD   R@0,X+
	LD   R@1,X
	.ENDM

	.MACRO __LSLW8SX
	MOVW R30,R28
	SUBI R30,LOW(-@0)
	SBCI R31,HIGH(-@0)
	LD   R31,Z
	CLR  R30
	.ENDM

	.MACRO __PUTB1SX
	MOVW R26,R28
	SUBI R26,LOW(-@0)
	SBCI R27,HIGH(-@0)
	ST   X,R30
	.ENDM

	.MACRO __PUTW1SX
	MOVW R26,R28
	SUBI R26,LOW(-@0)
	SBCI R27,HIGH(-@0)
	ST   X+,R30
	ST   X,R31
	.ENDM

	.MACRO __PUTD1SX
	MOVW R26,R28
	SUBI R26,LOW(-@0)
	SBCI R27,HIGH(-@0)
	ST   X+,R30
	ST   X+,R31
	ST   X+,R22
	ST   X,R23
	.ENDM

	.MACRO __CLRW1SX
	MOVW R26,R28
	SUBI R26,LOW(-@0)
	SBCI R27,HIGH(-@0)
	ST   X+,R30
	ST   X,R30
	.ENDM

	.MACRO __CLRD1SX
	MOVW R26,R28
	SUBI R26,LOW(-@0)
	SBCI R27,HIGH(-@0)
	ST   X+,R30
	ST   X+,R30
	ST   X+,R30
	ST   X,R30
	.ENDM

	.MACRO __PUTB2SX
	MOVW R30,R28
	SUBI R30,LOW(-@0)
	SBCI R31,HIGH(-@0)
	ST   Z,R26
	.ENDM

	.MACRO __PUTW2SX
	MOVW R30,R28
	SUBI R30,LOW(-@0)
	SBCI R31,HIGH(-@0)
	ST   Z+,R26
	ST   Z,R27
	.ENDM

	.MACRO __PUTD2SX
	MOVW R30,R28
	SUBI R30,LOW(-@0)
	SBCI R31,HIGH(-@0)
	ST   Z+,R26
	ST   Z+,R27
	ST   Z+,R24
	ST   Z,R25
	.ENDM

	.MACRO __PUTBSRX
	MOVW R30,R28
	SUBI R30,LOW(-@1)
	SBCI R31,HIGH(-@1)
	ST   Z,R@0
	.ENDM

	.MACRO __PUTWSRX
	MOVW R30,R28
	SUBI R30,LOW(-@2)
	SBCI R31,HIGH(-@2)
	ST   Z+,R@0
	ST   Z,R@1
	.ENDM

	.MACRO __PUTB1SNX
	MOVW R26,R28
	SUBI R26,LOW(-@0)
	SBCI R27,HIGH(-@0)
	LD   R0,X+
	LD   R27,X
	MOV  R26,R0
	SUBI R26,LOW(-@1)
	SBCI R27,HIGH(-@1)
	ST   X,R30
	.ENDM

	.MACRO __PUTW1SNX
	MOVW R26,R28
	SUBI R26,LOW(-@0)
	SBCI R27,HIGH(-@0)
	LD   R0,X+
	LD   R27,X
	MOV  R26,R0
	SUBI R26,LOW(-@1)
	SBCI R27,HIGH(-@1)
	ST   X+,R30
	ST   X,R31
	.ENDM

	.MACRO __PUTD1SNX
	MOVW R26,R28
	SUBI R26,LOW(-@0)
	SBCI R27,HIGH(-@0)
	LD   R0,X+
	LD   R27,X
	MOV  R26,R0
	SUBI R26,LOW(-@1)
	SBCI R27,HIGH(-@1)
	ST   X+,R30
	ST   X+,R31
	ST   X+,R22
	ST   X,R23
	.ENDM

	.MACRO __MULBRR
	MULS R@0,R@1
	MOVW R30,R0
	.ENDM

	.MACRO __MULBRRU
	MUL  R@0,R@1
	MOVW R30,R0
	.ENDM

	.MACRO __MULBRR0
	MULS R@0,R@1
	.ENDM

	.MACRO __MULBRRU0
	MUL  R@0,R@1
	.ENDM

	.MACRO __MULBNWRU
	LDI  R26,@2
	MUL  R26,R@0
	MOVW R30,R0
	MUL  R26,R@1
	ADD  R31,R0
	.ENDM

;NAME DEFINITIONS FOR GLOBAL VARIABLES ALLOCATED TO REGISTERS
	.DEF __lcd_x=R7
	.DEF __lcd_y=R6
	.DEF __lcd_maxx=R9

	.CSEG
	.ORG 0x00

;START OF CODE MARKER
__START_OF_CODE:

;INTERRUPT VECTORS
	JMP  __RESET
	JMP  0x00
	JMP  0x00
	JMP  0x00
	JMP  0x00
	JMP  0x00
	JMP  0x00
	JMP  0x00
	JMP  0x00
	JMP  0x00
	JMP  0x00
	JMP  0x00
	JMP  0x00
	JMP  0x00
	JMP  0x00
	JMP  0x00
	JMP  0x00
	JMP  0x00
	JMP  0x00
	JMP  0x00
	JMP  0x00
	JMP  0x00
	JMP  0x00
	JMP  0x00
	JMP  0x00
	JMP  0x00
	JMP  0x00
	JMP  0x00
	JMP  0x00
	JMP  0x00
	JMP  0x00
	JMP  0x00
	JMP  0x00
	JMP  0x00
	JMP  0x00

_tbl10_G100:
	.DB  0x10,0x27,0xE8,0x3,0x64,0x0,0xA,0x0
	.DB  0x1,0x0
_tbl16_G100:
	.DB  0x0,0x10,0x0,0x1,0x10,0x0,0x1,0x0

_0x3:
	.DB  0xC0,0xF9,0xA4,0xB0,0x99,0x92,0x82,0xD8
	.DB  0x80,0x98,0x88,0x83,0xC6,0xA1,0x86,0x8E
	.DB  0x7F
_0x2020003:
	.DB  0x80,0xC0

__GLOBAL_INI_TBL:
	.DW  0x11
	.DW  _fnd
	.DW  _0x3*2

	.DW  0x02
	.DW  __base_y_G101
	.DW  _0x2020003*2

_0xFFFFFFFF:
	.DW  0

#define __GLOBAL_INI_TBL_PRESENT 1

__RESET:
	CLI
	CLR  R30
	OUT  EECR,R30

;INTERRUPT VECTORS ARE PLACED
;AT THE START OF FLASH
	LDI  R31,1
	OUT  MCUCR,R31
	OUT  MCUCR,R30
	STS  XMCRB,R30

;CLEAR R2-R14
	LDI  R24,(14-2)+1
	LDI  R26,2
	CLR  R27
__CLEAR_REG:
	ST   X+,R30
	DEC  R24
	BRNE __CLEAR_REG

;CLEAR SRAM
	LDI  R24,LOW(__CLEAR_SRAM_SIZE)
	LDI  R25,HIGH(__CLEAR_SRAM_SIZE)
	LDI  R26,LOW(__SRAM_START)
	LDI  R27,HIGH(__SRAM_START)
__CLEAR_SRAM:
	ST   X+,R30
	SBIW R24,1
	BRNE __CLEAR_SRAM

;GLOBAL VARIABLES INITIALIZATION
	LDI  R30,LOW(__GLOBAL_INI_TBL*2)
	LDI  R31,HIGH(__GLOBAL_INI_TBL*2)
__GLOBAL_INI_NEXT:
	LPM  R24,Z+
	LPM  R25,Z+
	SBIW R24,0
	BREQ __GLOBAL_INI_END
	LPM  R26,Z+
	LPM  R27,Z+
	LPM  R0,Z+
	LPM  R1,Z+
	MOVW R22,R30
	MOVW R30,R0
__GLOBAL_INI_LOOP:
	LPM  R0,Z+
	ST   X+,R0
	SBIW R24,1
	BRNE __GLOBAL_INI_LOOP
	MOVW R30,R22
	RJMP __GLOBAL_INI_NEXT
__GLOBAL_INI_END:

	OUT  RAMPZ,R24

;HARDWARE STACK POINTER INITIALIZATION
	LDI  R30,LOW(__SRAM_END-__HEAP_SIZE)
	OUT  SPL,R30
	LDI  R30,HIGH(__SRAM_END-__HEAP_SIZE)
	OUT  SPH,R30

;DATA STACK POINTER INITIALIZATION
	LDI  R28,LOW(__SRAM_START+__DSTACK_SIZE)
	LDI  R29,HIGH(__SRAM_START+__DSTACK_SIZE)

	JMP  _main

	.ESEG
	.ORG 0x00

	.DSEG
	.ORG 0x500

	.CSEG
;#asm
.equ __lcd_port=0x15                // PORTC의 경우
; 0000 0003 #endasm
;
;#include <mega128.h>
	#ifndef __SLEEP_DEFINED__
	#define __SLEEP_DEFINED__
	.EQU __se_bit=0x20
	.EQU __sm_mask=0x1C
	.EQU __sm_powerdown=0x10
	.EQU __sm_powersave=0x18
	.EQU __sm_standby=0x14
	.EQU __sm_ext_standby=0x1C
	.EQU __sm_adc_noise_red=0x08
	.SET power_ctrl_reg=mcucr
	#endif
;#include <delay.h>
;#include <stdio.h>
;#include <lcd.h>
;
;int KeyMatrix(unsigned char in); 		// 키 값에서 FND 점등을 위한 값으로 변환함수
;// '0', '1', '2', '3', '4', '5', '6', '7', '8', '9', 'A', 'B', 'C', 'D', 'E', 'F', 'dot'
;unsigned char fnd[17]={0xc0, 0xf9, 0xa4, 0xb0, 0x99, 0x92, 0x82, 0xd8, 0x80, 0x98, 0x88, 0x83, 0xc6, 0xa1, 0x86, 0x8e, 0 ...

	.DSEG
;
;void main(void)
; 0000 000F {

	.CSEG
_main:
; .FSTART _main
; 0000 0010                int keyout;                                              // 키 메트릭스 행스캔 값 변수
; 0000 0011 	int i;
; 0000 0012 	unsigned char matrix;
; 0000 0013                int matrix_fast;
; 0000 0014                int wkflt=0;
; 0000 0015 	PORTB = 0xFF; DDRB = 0xFF;
	SBIW R28,4
	LDI  R30,LOW(0)
	ST   Y,R30
	STD  Y+1,R30
;	keyout -> R16,R17
;	i -> R18,R19
;	matrix -> R21
;	matrix_fast -> Y+2
;	wkflt -> Y+0
	LDI  R30,LOW(255)
	OUT  0x18,R30
	OUT  0x17,R30
; 0000 0016 	PORTA = 0xFF; DDRA = 0x0F;	// PORTA0,1,2,3출력, 4,5,6,7 입력으로
	OUT  0x1B,R30
	LDI  R30,LOW(15)
	OUT  0x1A,R30
; 0000 0017 	PORTB = ~fnd[0];               // 초기 "0" 표시
	LDS  R30,_fnd
	COM  R30
	OUT  0x18,R30
; 0000 0018                lcd_init(16);
	LDI  R26,LOW(16)
	RCALL _lcd_init
; 0000 0019               while(1)
_0x4:
; 0000 001A 	{
; 0000 001B 	        keyout = 0xfe; 			// 키 메트릭스 초기 행스캔 값 : 1110
	__GETWRN 16,17,254
; 0000 001C 	        for(i = 0; i<=3; i++)
	__GETWRN 18,19,0
_0x8:
	__CPWRN 18,19,4
	BRGE _0x9
; 0000 001D 	        {
; 0000 001E 		PORTA = keyout; 		// 행 스캔 출력
	OUT  0x1B,R16
; 0000 001F 		matrix = PINA;
	IN   R21,25
; 0000 0020                               matrix_fast=KeyMatrix(matrix);
	MOV  R26,R21
	RCALL _KeyMatrix
	STD  Y+2,R30
	STD  Y+2+1,R31
; 0000 0021 		//PORTB = ~fnd[ KeyMatrix(matrix) ]; // 키 값 -> FND 표시
; 0000 0022 		keyout = (keyout<<1) + 0x01;   // 스캔데이터 갱신 1110 ->1101 ->1011 ->0111
	MOVW R30,R16
	LSL  R30
	ROL  R31
	ADIW R30,1
	MOVW R16,R30
; 0000 0023 
; 0000 0024 	        }
	__ADDWRN 18,19,1
	RJMP _0x8
_0x9:
; 0000 0025                        if (matrix_fast==0x0F)
	LDD  R26,Y+2
	LDD  R27,Y+2+1
	SBIW R26,15
	BRNE _0xA
; 0000 0026                           {
; 0000 0027                            lcd_clear();
	RCALL _lcd_clear
; 0000 0028                           }
; 0000 0029                        else if(matrix_fast)
	RJMP _0xB
_0xA:
	LDD  R30,Y+2
	LDD  R31,Y+2+1
	SBIW R30,0
	BREQ _0xC
; 0000 002A                        {
; 0000 002B                         lcd_gotoxy(wkflt,0);
	LD   R30,Y
	ST   -Y,R30
	LDI  R26,LOW(0)
	RCALL _lcd_gotoxy
; 0000 002C                         lcd_putchar(matrix_fast);
	LDD  R26,Y+2
	RCALL _lcd_putchar
; 0000 002D 
; 0000 002E                         //key=KeyMatrix();
; 0000 002F                         //value=
; 0000 0030                        }
; 0000 0031 
; 0000 0032 
; 0000 0033                 //delay_ms(1);
; 0000 0034 	}
_0xC:
_0xB:
	RJMP _0x4
; 0000 0035 
; 0000 0036 }
_0xD:
	RJMP _0xD
; .FEND
;
;
;int KeyMatrix(unsigned char in) 	// 키 값에서 FND 점등을 위한 값으로 변환 함수
; 0000 003A {
_KeyMatrix:
; .FSTART _KeyMatrix
; 0000 003B 	// static: case에 들어가지 않는 잘못된 입력이 오면 기존 값 유지
; 0000 003C 	static unsigned char key = 0;
; 0000 003D 	switch(in){
	ST   -Y,R17
	MOV  R17,R26
;	in -> R17
	MOV  R30,R17
	LDI  R31,0
; 0000 003E 	 	case 0x7E : key = 0;  break;
	CPI  R30,LOW(0x7E)
	LDI  R26,HIGH(0x7E)
	CPC  R31,R26
	BRNE _0x11
	LDI  R30,LOW(0)
	RJMP _0x21
; 0000 003F 		case 0x7D : key = 1;  break;
_0x11:
	CPI  R30,LOW(0x7D)
	LDI  R26,HIGH(0x7D)
	CPC  R31,R26
	BRNE _0x12
	LDI  R30,LOW(1)
	RJMP _0x21
; 0000 0040 	 	case 0x7B : key = 2;  break;
_0x12:
	CPI  R30,LOW(0x7B)
	LDI  R26,HIGH(0x7B)
	CPC  R31,R26
	BRNE _0x13
	LDI  R30,LOW(2)
	RJMP _0x21
; 0000 0041 	 	case 0x77 : key = 3;  break;
_0x13:
	CPI  R30,LOW(0x77)
	LDI  R26,HIGH(0x77)
	CPC  R31,R26
	BRNE _0x14
	LDI  R30,LOW(3)
	RJMP _0x21
; 0000 0042 	 	case 0xBE : key = 4;  break;
_0x14:
	CPI  R30,LOW(0xBE)
	LDI  R26,HIGH(0xBE)
	CPC  R31,R26
	BRNE _0x15
	LDI  R30,LOW(4)
	RJMP _0x21
; 0000 0043 	 	case 0xBD : key = 5;  break;
_0x15:
	CPI  R30,LOW(0xBD)
	LDI  R26,HIGH(0xBD)
	CPC  R31,R26
	BRNE _0x16
	LDI  R30,LOW(5)
	RJMP _0x21
; 0000 0044 	 	case 0xBB : key = 6;  break;
_0x16:
	CPI  R30,LOW(0xBB)
	LDI  R26,HIGH(0xBB)
	CPC  R31,R26
	BRNE _0x17
	LDI  R30,LOW(6)
	RJMP _0x21
; 0000 0045 	 	case 0xB7 : key = 7;  break;
_0x17:
	CPI  R30,LOW(0xB7)
	LDI  R26,HIGH(0xB7)
	CPC  R31,R26
	BRNE _0x18
	LDI  R30,LOW(7)
	RJMP _0x21
; 0000 0046 	 	case 0xDE : key = 8;  break;
_0x18:
	CPI  R30,LOW(0xDE)
	LDI  R26,HIGH(0xDE)
	CPC  R31,R26
	BRNE _0x19
	LDI  R30,LOW(8)
	RJMP _0x21
; 0000 0047 	 	case 0xDD : key = 9;  break;
_0x19:
	CPI  R30,LOW(0xDD)
	LDI  R26,HIGH(0xDD)
	CPC  R31,R26
	BRNE _0x1A
	LDI  R30,LOW(9)
	RJMP _0x21
; 0000 0048 	 	case 0xDB : key = 0x0A;  break;
_0x1A:
	CPI  R30,LOW(0xDB)
	LDI  R26,HIGH(0xDB)
	CPC  R31,R26
	BRNE _0x1B
	LDI  R30,LOW(10)
	RJMP _0x21
; 0000 0049 	 	case 0xD7 : key = 0x0B;  break;
_0x1B:
	CPI  R30,LOW(0xD7)
	LDI  R26,HIGH(0xD7)
	CPC  R31,R26
	BRNE _0x1C
	LDI  R30,LOW(11)
	RJMP _0x21
; 0000 004A 	 	case 0xEE : key = 0x0C;  break;
_0x1C:
	CPI  R30,LOW(0xEE)
	LDI  R26,HIGH(0xEE)
	CPC  R31,R26
	BRNE _0x1D
	LDI  R30,LOW(12)
	RJMP _0x21
; 0000 004B 	 	case 0xED : key = 0x0D;  break;
_0x1D:
	CPI  R30,LOW(0xED)
	LDI  R26,HIGH(0xED)
	CPC  R31,R26
	BRNE _0x1E
	LDI  R30,LOW(13)
	RJMP _0x21
; 0000 004C 	 	case 0xEB : key = 0x0E;  break;
_0x1E:
	CPI  R30,LOW(0xEB)
	LDI  R26,HIGH(0xEB)
	CPC  R31,R26
	BRNE _0x1F
	LDI  R30,LOW(14)
	RJMP _0x21
; 0000 004D 	 	case 0xE7 : key = 0x0F;  break;
_0x1F:
	CPI  R30,LOW(0xE7)
	LDI  R26,HIGH(0xE7)
	CPC  R31,R26
	BRNE _0x10
	LDI  R30,LOW(15)
_0x21:
	STS  _key_S0000001000,R30
; 0000 004E 	}
_0x10:
; 0000 004F 	return key;
	LDS  R30,_key_S0000001000
	LDI  R31,0
	LD   R17,Y+
	RET
; 0000 0050 }
; .FEND
	#ifndef __SLEEP_DEFINED__
	#define __SLEEP_DEFINED__
	.EQU __se_bit=0x20
	.EQU __sm_mask=0x1C
	.EQU __sm_powerdown=0x10
	.EQU __sm_powersave=0x18
	.EQU __sm_standby=0x14
	.EQU __sm_ext_standby=0x1C
	.EQU __sm_adc_noise_red=0x08
	.SET power_ctrl_reg=mcucr
	#endif

	.CSEG
	#ifndef __SLEEP_DEFINED__
	#define __SLEEP_DEFINED__
	.EQU __se_bit=0x20
	.EQU __sm_mask=0x1C
	.EQU __sm_powerdown=0x10
	.EQU __sm_powersave=0x18
	.EQU __sm_standby=0x14
	.EQU __sm_ext_standby=0x1C
	.EQU __sm_adc_noise_red=0x08
	.SET power_ctrl_reg=mcucr
	#endif
    .equ __lcd_direction=__lcd_port-1
    .equ __lcd_pin=__lcd_port-2
    .equ __lcd_rs=0
    .equ __lcd_rd=1
    .equ __lcd_enable=2
    .equ __lcd_busy_flag=7

	.DSEG

	.CSEG
__lcd_delay_G101:
; .FSTART __lcd_delay_G101
    ldi   r31,15
__lcd_delay0:
    dec   r31
    brne  __lcd_delay0
	RET
; .FEND
__lcd_ready:
; .FSTART __lcd_ready
    in    r26,__lcd_direction
    andi  r26,0xf                 ;set as input
    out   __lcd_direction,r26
    sbi   __lcd_port,__lcd_rd     ;RD=1
    cbi   __lcd_port,__lcd_rs     ;RS=0
__lcd_busy:
	RCALL __lcd_delay_G101
    sbi   __lcd_port,__lcd_enable ;EN=1
	RCALL __lcd_delay_G101
    in    r26,__lcd_pin
    cbi   __lcd_port,__lcd_enable ;EN=0
	RCALL __lcd_delay_G101
    sbi   __lcd_port,__lcd_enable ;EN=1
	RCALL __lcd_delay_G101
    cbi   __lcd_port,__lcd_enable ;EN=0
    sbrc  r26,__lcd_busy_flag
    rjmp  __lcd_busy
	RET
; .FEND
__lcd_write_nibble_G101:
; .FSTART __lcd_write_nibble_G101
    andi  r26,0xf0
    or    r26,r27
    out   __lcd_port,r26          ;write
    sbi   __lcd_port,__lcd_enable ;EN=1
	RCALL __lcd_delay_G101
    cbi   __lcd_port,__lcd_enable ;EN=0
	RCALL __lcd_delay_G101
	RET
; .FEND
__lcd_write_data:
; .FSTART __lcd_write_data
	ST   -Y,R26
    cbi  __lcd_port,__lcd_rd 	  ;RD=0
    in    r26,__lcd_direction
    ori   r26,0xf0 | (1<<__lcd_rs) | (1<<__lcd_rd) | (1<<__lcd_enable) ;set as output
    out   __lcd_direction,r26
    in    r27,__lcd_port
    andi  r27,0xf
    ld    r26,y
	RCALL __lcd_write_nibble_G101
    ld    r26,y
    swap  r26
	RCALL __lcd_write_nibble_G101
    sbi   __lcd_port,__lcd_rd     ;RD=1
	JMP  _0x2080001
; .FEND
__lcd_read_nibble_G101:
; .FSTART __lcd_read_nibble_G101
    sbi   __lcd_port,__lcd_enable ;EN=1
	RCALL __lcd_delay_G101
    in    r30,__lcd_pin           ;read
    cbi   __lcd_port,__lcd_enable ;EN=0
	RCALL __lcd_delay_G101
    andi  r30,0xf0
	RET
; .FEND
_lcd_read_byte0_G101:
; .FSTART _lcd_read_byte0_G101
	RCALL __lcd_delay_G101
	RCALL __lcd_read_nibble_G101
    mov   r26,r30
	RCALL __lcd_read_nibble_G101
    cbi   __lcd_port,__lcd_rd     ;RD=0
    swap  r30
    or    r30,r26
	RET
; .FEND
_lcd_gotoxy:
; .FSTART _lcd_gotoxy
	ST   -Y,R26
	RCALL __lcd_ready
	LD   R30,Y
	LDI  R31,0
	SUBI R30,LOW(-__base_y_G101)
	SBCI R31,HIGH(-__base_y_G101)
	LD   R30,Z
	LDD  R26,Y+1
	ADD  R26,R30
	RCALL __lcd_write_data
	LDD  R7,Y+1
	LDD  R6,Y+0
	ADIW R28,2
	RET
; .FEND
_lcd_clear:
; .FSTART _lcd_clear
	RCALL __lcd_ready
	LDI  R26,LOW(2)
	RCALL __lcd_write_data
	RCALL __lcd_ready
	LDI  R26,LOW(12)
	RCALL __lcd_write_data
	RCALL __lcd_ready
	LDI  R26,LOW(1)
	RCALL __lcd_write_data
	LDI  R30,LOW(0)
	MOV  R6,R30
	MOV  R7,R30
	RET
; .FEND
_lcd_putchar:
; .FSTART _lcd_putchar
	ST   -Y,R26
    push r30
    push r31
    ld   r26,y
    set
    cpi  r26,10
    breq __lcd_putchar1
    clt
	CP   R7,R9
	BRLO _0x2020004
	__lcd_putchar1:
	INC  R6
	LDI  R30,LOW(0)
	ST   -Y,R30
	MOV  R26,R6
	RCALL _lcd_gotoxy
	brts __lcd_putchar0
_0x2020004:
	INC  R7
    rcall __lcd_ready
    sbi  __lcd_port,__lcd_rs ;RS=1
	LD   R26,Y
	RCALL __lcd_write_data
__lcd_putchar0:
    pop  r31
    pop  r30
	JMP  _0x2080001
; .FEND
__long_delay_G101:
; .FSTART __long_delay_G101
    clr   r26
    clr   r27
__long_delay0:
    sbiw  r26,1         ;2 cycles
    brne  __long_delay0 ;2 cycles
	RET
; .FEND
__lcd_init_write_G101:
; .FSTART __lcd_init_write_G101
	ST   -Y,R26
    cbi  __lcd_port,__lcd_rd 	  ;RD=0
    in    r26,__lcd_direction
    ori   r26,0xf7                ;set as output
    out   __lcd_direction,r26
    in    r27,__lcd_port
    andi  r27,0xf
    ld    r26,y
	RCALL __lcd_write_nibble_G101
    sbi   __lcd_port,__lcd_rd     ;RD=1
	RJMP _0x2080001
; .FEND
_lcd_init:
; .FSTART _lcd_init
	ST   -Y,R26
    cbi   __lcd_port,__lcd_enable ;EN=0
    cbi   __lcd_port,__lcd_rs     ;RS=0
	LDD  R9,Y+0
	LD   R30,Y
	SUBI R30,-LOW(128)
	__PUTB1MN __base_y_G101,2
	LD   R30,Y
	SUBI R30,-LOW(192)
	__PUTB1MN __base_y_G101,3
	RCALL __long_delay_G101
	LDI  R26,LOW(48)
	RCALL __lcd_init_write_G101
	RCALL __long_delay_G101
	LDI  R26,LOW(48)
	RCALL __lcd_init_write_G101
	RCALL __long_delay_G101
	LDI  R26,LOW(48)
	RCALL __lcd_init_write_G101
	RCALL __long_delay_G101
	LDI  R26,LOW(32)
	RCALL __lcd_init_write_G101
	RCALL __long_delay_G101
	LDI  R26,LOW(40)
	RCALL __lcd_write_data
	RCALL __long_delay_G101
	LDI  R26,LOW(4)
	RCALL __lcd_write_data
	RCALL __long_delay_G101
	LDI  R26,LOW(133)
	RCALL __lcd_write_data
	RCALL __long_delay_G101
    in    r26,__lcd_direction
    andi  r26,0xf                 ;set as input
    out   __lcd_direction,r26
    sbi   __lcd_port,__lcd_rd     ;RD=1
	RCALL _lcd_read_byte0_G101
	CPI  R30,LOW(0x5)
	BREQ _0x202000B
	LDI  R30,LOW(0)
	RJMP _0x2080001
_0x202000B:
	RCALL __lcd_ready
	LDI  R26,LOW(6)
	RCALL __lcd_write_data
	RCALL _lcd_clear
	LDI  R30,LOW(1)
_0x2080001:
	ADIW R28,1
	RET
; .FEND

	.CSEG

	.CSEG

	.DSEG
_fnd:
	.BYTE 0x11
_key_S0000001000:
	.BYTE 0x1
__base_y_G101:
	.BYTE 0x4

	.CSEG
;RUNTIME LIBRARY

	.CSEG
;END OF CODE MARKER
__END_OF_CODE:
